target datalayout = "e-m:e-p270:32:32-p271:32:32-p272:64:64-i64:64-i128:128-f80:128-n8:16:32:64-S128"
target triple = "x86_64-pc-linux-gnu"

%struct.BackendGlobalData = type <{ ptr, ptr, i8, i8, i8, i8, i8, i8, i8, i8, i8, [3 x i8], i32, ptr, ptr, ptr, ptr, ptr, ptr, ptr, ptr, ptr, ptr, ptr, ptr, ptr, i32, %struct.jvmtiCapabilities, i8, [3 x i8], %struct.jvmtiEventCallbacks, ptr, ptr, ptr, ptr, ptr, ptr, ptr, i32, [4 x i8], ptr, i64, i32, [4 x i8], ptr, i32, i32, i8, i8, [6 x i8] }>
%struct.jvmtiCapabilities = type { i64, i64 }
%struct.jvmtiEventCallbacks = type { ptr, ptr, ptr, ptr, ptr, ptr, ptr, ptr, ptr, ptr, ptr, ptr, ptr, ptr, ptr, ptr, ptr, ptr, ptr, ptr, ptr, ptr, ptr, ptr, ptr, ptr, ptr, ptr, ptr, ptr, ptr, ptr, ptr, ptr, ptr, ptr, ptr, ptr, ptr }
%struct.jvmtiInterface_1_ = type { ptr, ptr, ptr, ptr, ptr, ptr, ptr, ptr, ptr, ptr, ptr, ptr, ptr, ptr, ptr, ptr, ptr, ptr, ptr, ptr, ptr, ptr, ptr, ptr, ptr, ptr, ptr, ptr, ptr, ptr, ptr, ptr, ptr, ptr, ptr, ptr, ptr, ptr, ptr, ptr, ptr, ptr, ptr, ptr, ptr, ptr, ptr, ptr, ptr, ptr, ptr, ptr, ptr, ptr, ptr, ptr, ptr, ptr, ptr, ptr, ptr, ptr, ptr, ptr, ptr, ptr, ptr, ptr, ptr, ptr, ptr, ptr, ptr, ptr, ptr, ptr, ptr, ptr, ptr, ptr, ptr, ptr, ptr, ptr, ptr, ptr, ptr, ptr, ptr, ptr, ptr, ptr, ptr, ptr, ptr, ptr, ptr, ptr, ptr, ptr, ptr, ptr, ptr, ptr, ptr, ptr, ptr, ptr, ptr, ptr, ptr, ptr, ptr, ptr, ptr, ptr, ptr, ptr, ptr, ptr, ptr, ptr, ptr, ptr, ptr, ptr, ptr, ptr, ptr, ptr, ptr, ptr, ptr, ptr, ptr, ptr, ptr, ptr, ptr, ptr, ptr, ptr, ptr, ptr, ptr, ptr, ptr, ptr, ptr, ptr, ptr, ptr, ptr, ptr, ptr, ptr }

@gdata = external global ptr, align 8
@.str.6 = private unnamed_addr constant [6 x i8] c"JVMTI\00", align 1
@.str.7 = private unnamed_addr constant [53 x i8] c"src/jdk.jdwp.agent/share/native/libjdwp/MethodImpl.c\00", align 1
@.str.8 = private unnamed_addr constant [5 x i8] c"%s()\00", align 1
@.str.12 = private unnamed_addr constant [13 x i8] c"GetBytecodes\00", align 1

; Function Attrs: nounwind uwtable
define internal zeroext i8 @bytecodes(ptr noundef %0, ptr noundef %1) #0 {
  %3 = alloca i8, align 1
  %4 = alloca ptr, align 8
  %5 = alloca ptr, align 8
  %6 = alloca i32, align 4
  %7 = alloca ptr, align 8
  %8 = alloca i32, align 4
  %9 = alloca ptr, align 8
  store ptr %0, ptr %4, align 8
  store ptr %1, ptr %5, align 8
  %10 = call ptr @getEnv()
  %11 = load ptr, ptr %4, align 8
  %12 = call ptr @inStream_readClassRef(ptr noundef %10, ptr noundef %11)
  %13 = load ptr, ptr %4, align 8
  %14 = call zeroext i16 @inStream_error(ptr noundef %13)
  %15 = icmp ne i16 %14, 0
  br i1 %15, label %16, label %17

16:                                               ; preds = %2
  store i8 1, ptr %3, align 1
  br label %62

17:                                               ; preds = %2
  %18 = load ptr, ptr %4, align 8
  %19 = call ptr @inStream_readMethodID(ptr noundef %18)
  store ptr %19, ptr %9, align 8
  %20 = load ptr, ptr %4, align 8
  %21 = call zeroext i16 @inStream_error(ptr noundef %20)
  %22 = icmp ne i16 %21, 0
  br i1 %22, label %23, label %24

23:                                               ; preds = %17
  store i8 1, ptr %3, align 1
  br label %62

24:                                               ; preds = %17
  store i32 0, ptr %6, align 4
  store i32 0, ptr %8, align 4
  store ptr null, ptr %7, align 8
  %25 = load ptr, ptr %9, align 8
  %26 = call zeroext i8 @isMethodNative(ptr noundef %25)
  %27 = icmp ne i8 %26, 0
  br i1 %27, label %48, label %28

28:                                               ; preds = %24
  %29 = load ptr, ptr @gdata, align 8
  %30 = getelementptr inbounds %struct.BackendGlobalData, ptr %29, i32 0, i32 38
  %31 = load i32, ptr %30, align 8
  %32 = and i32 %31, 4
  %33 = icmp ne i32 %32, 0
  br i1 %33, label %34, label %35

34:                                               ; preds = %28
  call void @log_message_begin(ptr noundef @.str.6, ptr noundef @.str.7, i32 noundef 199)
  call void (ptr, ...) @log_message_end(ptr noundef @.str.8, ptr noundef @.str.12)
  br label %36

35:                                               ; preds = %28
  br label %36

36:                                               ; preds = %35, %34
  %37 = load ptr, ptr @gdata, align 8
  %38 = getelementptr inbounds %struct.BackendGlobalData, ptr %37, i32 0, i32 0
  %39 = load ptr, ptr %38, align 8
  %40 = load ptr, ptr %39, align 8
  %41 = getelementptr inbounds %struct.jvmtiInterface_1_, ptr %40, i32 0, i32 74
  %42 = load ptr, ptr %41, align 8
  %43 = load ptr, ptr @gdata, align 8
  %44 = getelementptr inbounds %struct.BackendGlobalData, ptr %43, i32 0, i32 0
  %45 = load ptr, ptr %44, align 8
  %46 = load ptr, ptr %9, align 8
  %47 = call i32 %42(ptr noundef %45, ptr noundef %46, ptr noundef %8, ptr noundef %7)
  store i32 %47, ptr %6, align 4
  br label %48

48:                                               ; preds = %36, %24
  %49 = load i32, ptr %6, align 4
  %50 = icmp ne i32 %49, 0
  br i1 %50, label %51, label %55

51:                                               ; preds = %48
  %52 = load ptr, ptr %5, align 8
  %53 = load i32, ptr %6, align 4
  %54 = call zeroext i16 @map2jdwpError(i32 noundef %53)
  call void @outStream_setError(ptr noundef %52, i16 noundef zeroext %54)
  br label %61

55:                                               ; preds = %48
  %56 = load ptr, ptr %5, align 8
  %57 = load i32, ptr %8, align 4
  %58 = load ptr, ptr %7, align 8
  %59 = call zeroext i16 @outStream_writeByteArray(ptr noundef %56, i32 noundef %57, ptr noundef %58)
  %60 = load ptr, ptr %7, align 8
  call void @jvmtiDeallocate(ptr noundef %60)
  br label %61

61:                                               ; preds = %55, %51
  store i8 1, ptr %3, align 1
  br label %62

62:                                               ; preds = %61, %23, %16
  %63 = load i8, ptr %3, align 1
  ret i8 %63
}