; Function Attrs: nounwind uwtable
define internal noundef zeroext i8 @bytecodes(ptr noundef %0, ptr noundef %1) #0 {
  %3 = alloca ptr, align 8
  %4 = alloca i32, align 4
  %5 = tail call ptr @getEnv() #2
  %6 = tail call ptr @inStream_readClassRef(ptr noundef %5, ptr noundef %0) #2
  %7 = tail call zeroext i16 @inStream_error(ptr noundef %0) #2
  %.not = icmp eq i16 %7, 0
  br i1 %.not, label %8, label %32

8:                                                ; preds = %2
  %9 = tail call ptr @inStream_readMethodID(ptr noundef %0) #2
  %10 = tail call zeroext i16 @inStream_error(ptr noundef %0) #2
  %.not11 = icmp eq i16 %10, 0
  br i1 %.not11, label %11, label %32

11:                                               ; preds = %8
  store i32 0, ptr %4, align 4
  store ptr null, ptr %3, align 8
  %12 = tail call zeroext i8 @isMethodNative(ptr noundef %9) #2
  %.not12 = icmp eq i8 %12, 0
  br i1 %.not12, label %13, label %.thread

13:                                               ; preds = %11
  %14 = load ptr, ptr @gdata, align 8
  %15 = getelementptr inbounds i8, ptr %14, i64 528
  %16 = load i32, ptr %15, align 8
  %17 = and i32 %16, 4
  %.not13 = icmp eq i32 %17, 0
  br i1 %.not13, label %19, label %18

18:                                               ; preds = %13
  tail call void @log_message_begin(ptr noundef nonnull @.str.6, ptr noundef nonnull @.str.7, i32 noundef 199) #2
  tail call void (ptr, ...) @log_message_end(ptr noundef nonnull @.str.8, ptr noundef nonnull @.str.12) #2
  %.pre = load ptr, ptr @gdata, align 8
  br label %19

19:                                               ; preds = %18, %13
  %20 = phi ptr [ %.pre, %18 ], [ %14, %13 ]
  %21 = load ptr, ptr %20, align 8
  %22 = load ptr, ptr %21, align 8
  %23 = getelementptr inbounds i8, ptr %22, i64 592
  %24 = load ptr, ptr %23, align 8
  %25 = call i32 %24(ptr noundef nonnull %21, ptr noundef %9, ptr noundef nonnull %4, ptr noundef nonnull %3) #2
  %.not14 = icmp eq i32 %25, 0
  br i1 %.not14, label %..thread_crit_edge, label %26

..thread_crit_edge:                               ; preds = %19
  %.pre17 = load i32, ptr %4, align 4
  %.pre18 = load ptr, ptr %3, align 8
  br label %.thread

26:                                               ; preds = %19
  %27 = call zeroext i16 @map2jdwpError(i32 noundef %25) #2
  call void @outStream_setError(ptr noundef %1, i16 noundef zeroext %27) #2
  br label %32

.thread:                                          ; preds = %..thread_crit_edge, %11
  %28 = phi ptr [ %.pre18, %..thread_crit_edge ], [ null, %11 ]
  %29 = phi i32 [ %.pre17, %..thread_crit_edge ], [ 0, %11 ]
  %30 = call zeroext i16 @outStream_writeByteArray(ptr noundef %1, i32 noundef %29, ptr noundef %28) #2
  %31 = load ptr, ptr %3, align 8
  call void @jvmtiDeallocate(ptr noundef %31) #2
  br label %32

32:                                               ; preds = %26, %.thread, %8, %2
  ret i8 1
}